target datalayout = "e-m:e-p270:32:32-p271:32:32-p272:64:64-i64:64-i128:128-f80:128-n8:16:32:64-S128"
target triple = "x86_64-pc-linux-gnu"

%class.G1PhaseDependentSeq = type { %class.TruncatedSeq, %class.TruncatedSeq }
%class.TruncatedSeq = type { %class.AbsSeq, ptr, i32, i32 }
%class.AbsSeq = type { ptr, i32, double, double, double, double, double }
%class.G1Analytics = type { ptr, %class.TruncatedSeq, %class.TruncatedSeq, %class.TruncatedSeq, %class.TruncatedSeq, double, %class.TruncatedSeq, %class.TruncatedSeq, %class.TruncatedSeq, %class.G1PhaseDependentSeq, %class.G1PhaseDependentSeq, %class.G1PhaseDependentSeq, %class.G1PhaseDependentSeq, %class.G1PhaseDependentSeq, %class.G1PhaseDependentSeq, %class.G1PhaseDependentSeq, %class.G1PhaseDependentSeq, %class.TruncatedSeq, %class.TruncatedSeq, %class.TruncatedSeq, %class.TruncatedSeq, %class.TruncatedSeq, double, double }

; Function Attrs: mustprogress nounwind uwtable
define hidden noundef ptr @_ZN19G1PhaseDependentSeq7seq_rawEb(ptr noundef nonnull align 8 dereferenceable(144) %0, i1 noundef zeroext %1) #1 align 2 {
  %3 = alloca ptr, align 8
  %4 = alloca i8, align 1
  store ptr %0, ptr %3, align 8
  %5 = zext i1 %1 to i8
  store i8 %5, ptr %4, align 1
  %6 = load ptr, ptr %3, align 8
  %7 = load i8, ptr %4, align 1
  %8 = trunc i8 %7 to i1
  br i1 %8, label %9, label %11

9:                                                ; preds = %2
  %10 = getelementptr inbounds %class.G1PhaseDependentSeq, ptr %6, i32 0, i32 0
  br label %13

11:                                               ; preds = %2
  %12 = getelementptr inbounds %class.G1PhaseDependentSeq, ptr %6, i32 0, i32 1
  br label %13

13:                                               ; preds = %11, %9
  %14 = phi ptr [ %10, %9 ], [ %12, %11 ]
  ret ptr %14
}

; Function Attrs: mustprogress nounwind uwtable
define hidden void @_ZN19G1PhaseDependentSeq3addEdb(ptr noundef nonnull align 8 dereferenceable(144) %0, double noundef %1, i1 noundef zeroext %2) #1 align 2 {
  %4 = alloca ptr, align 8
  %5 = alloca double, align 8
  %6 = alloca i8, align 1
  store ptr %0, ptr %4, align 8
  store double %1, ptr %5, align 8
  %7 = zext i1 %2 to i8
  store i8 %7, ptr %6, align 1
  %8 = load ptr, ptr %4, align 8
  %9 = load i8, ptr %6, align 1
  %10 = trunc i8 %9 to i1
  %11 = call noundef ptr @_ZN19G1PhaseDependentSeq7seq_rawEb(ptr noundef nonnull align 8 dereferenceable(144) %8, i1 noundef zeroext %10)
  %12 = load double, ptr %5, align 8
  %13 = load ptr, ptr %11, align 8
  %14 = getelementptr inbounds ptr, ptr %13, i64 1
  %15 = load ptr, ptr %14, align 8
  call void %15(ptr noundef nonnull align 8 dereferenceable(72) %11, double noundef %12)
  ret void
}

; Function Attrs: mustprogress nounwind uwtable
define hidden void @_ZN11G1Analytics31report_card_scan_to_merge_ratioEdb(ptr noundef nonnull align 8 dereferenceable(2048) %0, double noundef %1, i1 noundef zeroext %2) #1 align 2 {
  %4 = alloca ptr, align 8
  %5 = alloca double, align 8
  %6 = alloca i8, align 1
  store ptr %0, ptr %4, align 8
  store double %1, ptr %5, align 8
  %7 = zext i1 %2 to i8
  store i8 %7, ptr %6, align 1
  %8 = load ptr, ptr %4, align 8
  %9 = getelementptr inbounds %class.G1Analytics, ptr %8, i32 0, i32 9
  %10 = load double, ptr %5, align 8
  %11 = load i8, ptr %6, align 1
  %12 = trunc i8 %11 to i1
  call void @_ZN19G1PhaseDependentSeq3addEdb(ptr noundef nonnull align 8 dereferenceable(144) %9, double noundef %10, i1 noundef zeroext %12)
  ret void
}